target datalayout = "e-m:e-p270:32:32-p271:32:32-p272:64:64-i64:64-i128:128-f80:128-n8:16:32:64-S128"
target triple = "x86_64-pc-linux-gnu"

%struct.prov_drbg_st = type { ptr, ptr, ptr, ptr, ptr, ptr, ptr, ptr, ptr, ptr, ptr, ptr, ptr, ptr, i32, i16, i32, i64, i64, i64, i64, i64, i64, i64, i32, i32, i64, i64, i32, i32, i32, i64, i32, ptr, ptr, ptr, ptr, ptr, ptr }
%struct.rand_drbg_ctr_st = type { ptr, ptr, ptr, ptr, ptr, i64, i32, [32 x i8], [16 x i8], [16 x i8], i64, [48 x i8] }

; Function Attrs: nounwind uwtable
define internal i32 @drbg_ctr_verify_zeroization(ptr noundef %0) #0 {
  %2 = alloca i32, align 4
  %3 = alloca ptr, align 8
  %4 = alloca ptr, align 8
  %5 = alloca ptr, align 8
  %6 = alloca i32, align 4
  %7 = alloca i32, align 4
  %8 = alloca i64, align 8
  %9 = alloca i64, align 8
  %10 = alloca i64, align 8
  %11 = alloca i64, align 8
  store ptr %0, ptr %3, align 8, !tbaa !3
  call void @llvm.lifetime.start.p0(i64 8, ptr %4) #6
  %12 = load ptr, ptr %3, align 8, !tbaa !3
  store ptr %12, ptr %4, align 8, !tbaa !9
  call void @llvm.lifetime.start.p0(i64 8, ptr %5) #6
  %13 = load ptr, ptr %4, align 8, !tbaa !9
  %14 = getelementptr inbounds nuw %struct.prov_drbg_st, ptr %13, i32 0, i32 33
  %15 = load ptr, ptr %14, align 8, !tbaa !11
  store ptr %15, ptr %5, align 8, !tbaa !17
  call void @llvm.lifetime.start.p0(i64 4, ptr %6) #6
  store i32 0, ptr %6, align 4, !tbaa !27
  %16 = load ptr, ptr %4, align 8, !tbaa !9
  %17 = getelementptr inbounds nuw %struct.prov_drbg_st, ptr %16, i32 0, i32 0
  %18 = load ptr, ptr %17, align 8, !tbaa !33
  %19 = icmp ne ptr %18, null
  br i1 %19, label %20, label %27

20:                                               ; preds = %1
  %21 = load ptr, ptr %4, align 8, !tbaa !9
  %22 = getelementptr inbounds nuw %struct.prov_drbg_st, ptr %21, i32 0, i32 0
  %23 = load ptr, ptr %22, align 8, !tbaa !33
  %24 = call i32 @CRYPTO_THREAD_read_lock(ptr noundef %23)
  %25 = icmp ne i32 %24, 0
  br i1 %25, label %27, label %26

26:                                               ; preds = %20
  store i32 0, ptr %2, align 4
  store i32 1, ptr %7, align 4
  br label %126

27:                                               ; preds = %20, %1
  call void @llvm.lifetime.start.p0(i64 8, ptr %8) #6
  store i64 0, ptr %8, align 8, !tbaa !30
  br label %28

28:                                               ; preds = %41, %27
  %29 = load i64, ptr %8, align 8, !tbaa !30
  %30 = icmp ult i64 %29, 32
  br i1 %30, label %31, label %44

31:                                               ; preds = %28
  %32 = load ptr, ptr %5, align 8, !tbaa !17
  %33 = getelementptr inbounds nuw %struct.rand_drbg_ctr_st, ptr %32, i32 0, i32 7
  %34 = load i64, ptr %8, align 8, !tbaa !30
  %35 = getelementptr inbounds nuw [32 x i8], ptr %33, i64 0, i64 %34
  %36 = load i8, ptr %35, align 1, !tbaa !35
  %37 = zext i8 %36 to i32
  %38 = icmp ne i32 %37, 0
  br i1 %38, label %39, label %40

39:                                               ; preds = %31
  store i32 5, ptr %7, align 4
  br label %45

40:                                               ; preds = %31
  br label %41

41:                                               ; preds = %40
  %42 = load i64, ptr %8, align 8, !tbaa !30
  %43 = add i64 %42, 1
  store i64 %43, ptr %8, align 8, !tbaa !30
  br label %28, !llvm.loop !36

44:                                               ; preds = %28
  store i32 0, ptr %7, align 4
  br label %45

45:                                               ; preds = %39, %44
  call void @llvm.lifetime.end.p0(i64 8, ptr %8) #6
  %46 = load i32, ptr %7, align 4
  switch i32 %46, label %126 [
    i32 0, label %47
    i32 5, label %114
  ]

47:                                               ; preds = %45
  call void @llvm.lifetime.start.p0(i64 8, ptr %9) #6
  store i64 0, ptr %9, align 8, !tbaa !30
  br label %48

48:                                               ; preds = %61, %47
  %49 = load i64, ptr %9, align 8, !tbaa !30
  %50 = icmp ult i64 %49, 16
  br i1 %50, label %51, label %64

51:                                               ; preds = %48
  %52 = load ptr, ptr %5, align 8, !tbaa !17
  %53 = getelementptr inbounds nuw %struct.rand_drbg_ctr_st, ptr %52, i32 0, i32 8
  %54 = load i64, ptr %9, align 8, !tbaa !30
  %55 = getelementptr inbounds nuw [16 x i8], ptr %53, i64 0, i64 %54
  %56 = load i8, ptr %55, align 1, !tbaa !35
  %57 = zext i8 %56 to i32
  %58 = icmp ne i32 %57, 0
  br i1 %58, label %59, label %60

59:                                               ; preds = %51
  store i32 5, ptr %7, align 4
  br label %65

60:                                               ; preds = %51
  br label %61

61:                                               ; preds = %60
  %62 = load i64, ptr %9, align 8, !tbaa !30
  %63 = add i64 %62, 1
  store i64 %63, ptr %9, align 8, !tbaa !30
  br label %48, !llvm.loop !38

64:                                               ; preds = %48
  store i32 0, ptr %7, align 4
  br label %65

65:                                               ; preds = %59, %64
  call void @llvm.lifetime.end.p0(i64 8, ptr %9) #6
  %66 = load i32, ptr %7, align 4
  switch i32 %66, label %126 [
    i32 0, label %67
    i32 5, label %114
  ]

67:                                               ; preds = %65
  call void @llvm.lifetime.start.p0(i64 8, ptr %10) #6
  store i64 0, ptr %10, align 8, !tbaa !30
  br label %68

68:                                               ; preds = %81, %67
  %69 = load i64, ptr %10, align 8, !tbaa !30
  %70 = icmp ult i64 %69, 16
  br i1 %70, label %71, label %84

71:                                               ; preds = %68
  %72 = load ptr, ptr %5, align 8, !tbaa !17
  %73 = getelementptr inbounds nuw %struct.rand_drbg_ctr_st, ptr %72, i32 0, i32 9
  %74 = load i64, ptr %10, align 8, !tbaa !30
  %75 = getelementptr inbounds nuw [16 x i8], ptr %73, i64 0, i64 %74
  %76 = load i8, ptr %75, align 1, !tbaa !35
  %77 = zext i8 %76 to i32
  %78 = icmp ne i32 %77, 0
  br i1 %78, label %79, label %80

79:                                               ; preds = %71
  store i32 5, ptr %7, align 4
  br label %85

80:                                               ; preds = %71
  br label %81

81:                                               ; preds = %80
  %82 = load i64, ptr %10, align 8, !tbaa !30
  %83 = add i64 %82, 1
  store i64 %83, ptr %10, align 8, !tbaa !30
  br label %68, !llvm.loop !39

84:                                               ; preds = %68
  store i32 0, ptr %7, align 4
  br label %85

85:                                               ; preds = %79, %84
  call void @llvm.lifetime.end.p0(i64 8, ptr %10) #6
  %86 = load i32, ptr %7, align 4
  switch i32 %86, label %126 [
    i32 0, label %87
    i32 5, label %114
  ]

87:                                               ; preds = %85
  call void @llvm.lifetime.start.p0(i64 8, ptr %11) #6
  store i64 0, ptr %11, align 8, !tbaa !30
  br label %88

88:                                               ; preds = %101, %87
  %89 = load i64, ptr %11, align 8, !tbaa !30
  %90 = icmp ult i64 %89, 48
  br i1 %90, label %91, label %104

91:                                               ; preds = %88
  %92 = load ptr, ptr %5, align 8, !tbaa !17
  %93 = getelementptr inbounds nuw %struct.rand_drbg_ctr_st, ptr %92, i32 0, i32 11
  %94 = load i64, ptr %11, align 8, !tbaa !30
  %95 = getelementptr inbounds nuw [48 x i8], ptr %93, i64 0, i64 %94
  %96 = load i8, ptr %95, align 1, !tbaa !35
  %97 = zext i8 %96 to i32
  %98 = icmp ne i32 %97, 0
  br i1 %98, label %99, label %100

99:                                               ; preds = %91
  store i32 5, ptr %7, align 4
  br label %105

100:                                              ; preds = %91
  br label %101

101:                                              ; preds = %100
  %102 = load i64, ptr %11, align 8, !tbaa !30
  %103 = add i64 %102, 1
  store i64 %103, ptr %11, align 8, !tbaa !30
  br label %88, !llvm.loop !40

104:                                              ; preds = %88
  store i32 0, ptr %7, align 4
  br label %105

105:                                              ; preds = %99, %104
  call void @llvm.lifetime.end.p0(i64 8, ptr %11) #6
  %106 = load i32, ptr %7, align 4
  switch i32 %106, label %126 [
    i32 0, label %107
    i32 5, label %114
  ]

107:                                              ; preds = %105
  %108 = load ptr, ptr %5, align 8, !tbaa !17
  %109 = getelementptr inbounds nuw %struct.rand_drbg_ctr_st, ptr %108, i32 0, i32 10
  %110 = load i64, ptr %109, align 8, !tbaa !41
  %111 = icmp ne i64 %110, 0
  br i1 %111, label %112, label %113

112:                                              ; preds = %107
  br label %114

113:                                              ; preds = %107
  store i32 1, ptr %6, align 4, !tbaa !27
  br label %114

114:                                              ; preds = %113, %105, %85, %65, %45, %112
  %115 = load ptr, ptr %4, align 8, !tbaa !9
  %116 = getelementptr inbounds nuw %struct.prov_drbg_st, ptr %115, i32 0, i32 0
  %117 = load ptr, ptr %116, align 8, !tbaa !33
  %118 = icmp ne ptr %117, null
  br i1 %118, label %119, label %124

119:                                              ; preds = %114
  %120 = load ptr, ptr %4, align 8, !tbaa !9
  %121 = getelementptr inbounds nuw %struct.prov_drbg_st, ptr %120, i32 0, i32 0
  %122 = load ptr, ptr %121, align 8, !tbaa !33
  %123 = call i32 @CRYPTO_THREAD_unlock(ptr noundef %122)
  br label %124

124:                                              ; preds = %119, %114
  %125 = load i32, ptr %6, align 4, !tbaa !27
  store i32 %125, ptr %2, align 4
  store i32 1, ptr %7, align 4
  br label %126

126:                                              ; preds = %124, %105, %85, %65, %45, %26
  call void @llvm.lifetime.end.p0(i64 4, ptr %6) #6
  call void @llvm.lifetime.end.p0(i64 8, ptr %5) #6
  call void @llvm.lifetime.end.p0(i64 8, ptr %4) #6
  %127 = load i32, ptr %2, align 4
  ret i32 %127
}