; Function Attrs: nounwind uwtable
define internal range(i32 0, 2) i32 @drbg_ctr_verify_zeroization(ptr noundef readonly captures(none) %0) #0 {
  %2 = getelementptr inbounds nuw i8, ptr %0, i64 240
  %3 = load ptr, ptr %2, align 8, !tbaa !3
  %4 = load ptr, ptr %0, align 8, !tbaa !20
  %.not = icmp eq ptr %4, null
  br i1 %.not, label %7, label %5

5:                                                ; preds = %1
  %6 = tail call i32 @CRYPTO_THREAD_read_lock(ptr noundef nonnull %4) #7
  %.not36 = icmp eq i32 %6, 0
  br i1 %.not36, label %38, label %7

7:                                                ; preds = %5, %1
  %8 = getelementptr inbounds nuw i8, ptr %3, i64 52
  br label %12

9:                                                ; preds = %12
  %10 = add nuw nsw i64 %.03055, 1
  %exitcond.not = icmp eq i64 %10, 32
  br i1 %exitcond.not, label %.preheader52, label %12, !llvm.loop !24

.preheader52:                                     ; preds = %9
  %11 = getelementptr inbounds nuw i8, ptr %3, i64 84
  br label %18

12:                                               ; preds = %7, %9
  %.03055 = phi i64 [ 0, %7 ], [ %10, %9 ]
  %13 = getelementptr inbounds nuw [32 x i8], ptr %8, i64 0, i64 %.03055
  %14 = load i8, ptr %13, align 1, !tbaa !26
  %.not37 = icmp eq i8 %14, 0
  br i1 %.not37, label %9, label %.thread

15:                                               ; preds = %18
  %16 = add nuw nsw i64 %.02956, 1
  %exitcond62.not = icmp eq i64 %16, 16
  br i1 %exitcond62.not, label %.preheader50, label %18, !llvm.loop !27

.preheader50:                                     ; preds = %15
  %17 = getelementptr inbounds nuw i8, ptr %3, i64 100
  br label %24

18:                                               ; preds = %.preheader52, %15
  %.02956 = phi i64 [ 0, %.preheader52 ], [ %16, %15 ]
  %19 = getelementptr inbounds nuw [16 x i8], ptr %11, i64 0, i64 %.02956
  %20 = load i8, ptr %19, align 1, !tbaa !26
  %.not38 = icmp eq i8 %20, 0
  br i1 %.not38, label %15, label %.thread

21:                                               ; preds = %24
  %22 = add nuw nsw i64 %.02857, 1
  %exitcond63.not = icmp eq i64 %22, 16
  br i1 %exitcond63.not, label %.preheader, label %24, !llvm.loop !28

.preheader:                                       ; preds = %21
  %23 = getelementptr inbounds nuw i8, ptr %3, i64 128
  br label %29

24:                                               ; preds = %.preheader50, %21
  %.02857 = phi i64 [ 0, %.preheader50 ], [ %22, %21 ]
  %25 = getelementptr inbounds nuw [16 x i8], ptr %17, i64 0, i64 %.02857
  %26 = load i8, ptr %25, align 1, !tbaa !26
  %.not39 = icmp eq i8 %26, 0
  br i1 %.not39, label %21, label %.thread

27:                                               ; preds = %29
  %28 = add nuw nsw i64 %.058, 1
  %exitcond64.not = icmp eq i64 %28, 48
  br i1 %exitcond64.not, label %32, label %29, !llvm.loop !29

29:                                               ; preds = %.preheader, %27
  %.058 = phi i64 [ 0, %.preheader ], [ %28, %27 ]
  %30 = getelementptr inbounds nuw [48 x i8], ptr %23, i64 0, i64 %.058
  %31 = load i8, ptr %30, align 1, !tbaa !26
  %.not40 = icmp eq i8 %31, 0
  br i1 %.not40, label %27, label %.thread

32:                                               ; preds = %27
  %33 = getelementptr inbounds nuw i8, ptr %3, i64 120
  %34 = load i64, ptr %33, align 8, !tbaa !21
  %.not41 = icmp eq i64 %34, 0
  %spec.select = zext i1 %.not41 to i32
  br label %.thread

.thread:                                          ; preds = %12, %18, %24, %29, %32
  %.032 = phi i32 [ %spec.select, %32 ], [ 0, %29 ], [ 0, %24 ], [ 0, %18 ], [ 0, %12 ]
  %35 = load ptr, ptr %0, align 8, !tbaa !20
  %.not42 = icmp eq ptr %35, null
  br i1 %.not42, label %38, label %36

36:                                               ; preds = %.thread
  %37 = tail call i32 @CRYPTO_THREAD_unlock(ptr noundef nonnull %35) #7
  br label %38

38:                                               ; preds = %.thread, %36, %5
  %.033 = phi i32 [ 0, %5 ], [ %.032, %36 ], [ %.032, %.thread ]
  ret i32 %.033
}